target datalayout = "e-m:e-p270:32:32-p271:32:32-p272:64:64-i64:64-i128:128-f80:128-n8:16:32:64-S128"
target triple = "x86_64-pc-linux-gnu"

%struct.FilterLinkInternal = type { %struct.FilterLink, ptr, %struct.FFFrameQueue, i32, i32, i64, i32, i32, i32, i32 }
%struct.FilterLink = type { %struct.AVFilterLink, ptr, i64, i64, i32, i32, i64, i64, i64, i64, %struct.AVRational, ptr }
%struct.AVFilterLink = type { ptr, ptr, ptr, ptr, i32, i32, i32, i32, %struct.AVRational, i32, i32, i32, %struct.AVChannelLayout, %struct.AVRational, ptr, i32, %struct.AVFilterFormatsConfig, %struct.AVFilterFormatsConfig }
%struct.AVChannelLayout = type { i32, i32, %union.anon.0, ptr }
%union.anon.0 = type { i64 }
%struct.AVFilterFormatsConfig = type { ptr, ptr, ptr, ptr, ptr }
%struct.AVRational = type { i32, i32 }
%struct.FFFrameQueue = type { ptr, i64, i64, i64, %struct.FFFrameBucket, i64, i64, i64, i64, i32 }
%struct.FFFrameBucket = type { ptr }

; Function Attrs: nounwind uwtable
define internal void @update_link_current_pts(ptr noundef %0, i64 noundef %1) #0 {
  %3 = alloca ptr, align 8
  %4 = alloca i64, align 8
  %5 = alloca ptr, align 8
  %6 = alloca i32, align 4
  %7 = alloca %struct.AVRational, align 4
  store ptr %0, ptr %3, align 8, !tbaa !47
  store i64 %1, ptr %4, align 8, !tbaa !77
  call void @llvm.lifetime.start.p0(i64 8, ptr %5) #11
  %8 = load ptr, ptr %3, align 8, !tbaa !47
  %9 = getelementptr inbounds nuw %struct.FilterLinkInternal, ptr %8, i32 0, i32 0
  %10 = getelementptr inbounds nuw %struct.FilterLink, ptr %9, i32 0, i32 0
  store ptr %10, ptr %5, align 8, !tbaa !26
  %11 = load i64, ptr %4, align 8, !tbaa !77
  %12 = icmp eq i64 %11, -9223372036854775808
  br i1 %12, label %13, label %14

13:                                               ; preds = %2
  store i32 1, ptr %6, align 4
  br label %47

14:                                               ; preds = %2
  %15 = load i64, ptr %4, align 8, !tbaa !77
  %16 = load ptr, ptr %3, align 8, !tbaa !47
  %17 = getelementptr inbounds nuw %struct.FilterLinkInternal, ptr %16, i32 0, i32 0
  %18 = getelementptr inbounds nuw %struct.FilterLink, ptr %17, i32 0, i32 2
  store i64 %15, ptr %18, align 8, !tbaa !90
  %19 = load i64, ptr %4, align 8, !tbaa !77
  %20 = load ptr, ptr %5, align 8, !tbaa !26
  %21 = getelementptr inbounds nuw %struct.AVFilterLink, ptr %20, i32 0, i32 13
  %22 = getelementptr inbounds nuw %struct.AVRational, ptr %7, i32 0, i32 0
  store i32 1, ptr %22, align 4, !tbaa !101
  %23 = getelementptr inbounds nuw %struct.AVRational, ptr %7, i32 0, i32 1
  store i32 1000000, ptr %23, align 4, !tbaa !102
  %24 = load i64, ptr %21, align 8
  %25 = load i64, ptr %7, align 4
  %26 = call i64 @av_rescale_q(i64 noundef %19, i64 %24, i64 %25) #14
  %27 = load ptr, ptr %3, align 8, !tbaa !47
  %28 = getelementptr inbounds nuw %struct.FilterLinkInternal, ptr %27, i32 0, i32 0
  %29 = getelementptr inbounds nuw %struct.FilterLink, ptr %28, i32 0, i32 3
  store i64 %26, ptr %29, align 8, !tbaa !89
  %30 = load ptr, ptr %3, align 8, !tbaa !47
  %31 = getelementptr inbounds nuw %struct.FilterLinkInternal, ptr %30, i32 0, i32 0
  %32 = getelementptr inbounds nuw %struct.FilterLink, ptr %31, i32 0, i32 1
  %33 = load ptr, ptr %32, align 8, !tbaa !61
  %34 = icmp ne ptr %33, null
  br i1 %34, label %35, label %46

35:                                               ; preds = %14
  %36 = load ptr, ptr %3, align 8, !tbaa !47
  %37 = getelementptr inbounds nuw %struct.FilterLinkInternal, ptr %36, i32 0, i32 8
  %38 = load i32, ptr %37, align 8, !tbaa !202
  %39 = icmp sge i32 %38, 0
  br i1 %39, label %40, label %46

40:                                               ; preds = %35
  %41 = load ptr, ptr %3, align 8, !tbaa !47
  %42 = getelementptr inbounds nuw %struct.FilterLinkInternal, ptr %41, i32 0, i32 0
  %43 = getelementptr inbounds nuw %struct.FilterLink, ptr %42, i32 0, i32 1
  %44 = load ptr, ptr %43, align 8, !tbaa !61
  %45 = load ptr, ptr %3, align 8, !tbaa !47
  call void @ff_avfilter_graph_update_heap(ptr noundef %44, ptr noundef %45)
  br label %46

46:                                               ; preds = %40, %35, %14
  store i32 0, ptr %6, align 4
  br label %47

47:                                               ; preds = %46, %13
  call void @llvm.lifetime.end.p0(i64 8, ptr %5) #11
  %48 = load i32, ptr %6, align 4
  switch i32 %48, label %50 [
    i32 0, label %49
    i32 1, label %49
  ]

49:                                               ; preds = %47, %47
  ret void

50:                                               ; preds = %47
  unreachable
}

; Function Attrs: inlinehint nounwind uwtable
define internal i64 @ff_framequeue_queued_frames(ptr noundef %0) #4 {
  %2 = alloca ptr, align 8
  store ptr %0, ptr %2, align 8, !tbaa !121
  %3 = load ptr, ptr %2, align 8, !tbaa !121
  %4 = getelementptr inbounds nuw %struct.FFFrameQueue, ptr %3, i32 0, i32 3
  %5 = load i64, ptr %4, align 8, !tbaa !123
  ret i64 %5
}

; Function Attrs: inlinehint nounwind uwtable
define internal ptr @ff_link_internal(ptr noundef %0) #4 {
  %2 = alloca ptr, align 8
  store ptr %0, ptr %2, align 8, !tbaa !26
  %3 = load ptr, ptr %2, align 8, !tbaa !26
  ret ptr %3
}

; Function Attrs: nounwind uwtable
define i32 @ff_inlink_acknowledge_status(ptr noundef %0, ptr noundef %1, ptr noundef %2) #0 {
  %4 = alloca i32, align 4
  %5 = alloca ptr, align 8
  %6 = alloca ptr, align 8
  %7 = alloca ptr, align 8
  %8 = alloca ptr, align 8
  %9 = alloca i32, align 4
  store ptr %0, ptr %5, align 8, !tbaa !26
  store ptr %1, ptr %6, align 8, !tbaa !11
  store ptr %2, ptr %7, align 8, !tbaa !200
  call void @llvm.lifetime.start.p0(i64 8, ptr %8) #11
  %10 = load ptr, ptr %5, align 8, !tbaa !26
  %11 = call ptr @ff_link_internal(ptr noundef %10)
  store ptr %11, ptr %8, align 8, !tbaa !47
  %12 = load ptr, ptr %8, align 8, !tbaa !47
  %13 = getelementptr inbounds nuw %struct.FilterLinkInternal, ptr %12, i32 0, i32 0
  %14 = getelementptr inbounds nuw %struct.FilterLink, ptr %13, i32 0, i32 2
  %15 = load i64, ptr %14, align 8, !tbaa !90
  %16 = load ptr, ptr %7, align 8, !tbaa !200
  store i64 %15, ptr %16, align 8, !tbaa !77
  %17 = load ptr, ptr %8, align 8, !tbaa !47
  %18 = getelementptr inbounds nuw %struct.FilterLinkInternal, ptr %17, i32 0, i32 2
  %19 = call i64 @ff_framequeue_queued_frames(ptr noundef %18)
  %20 = icmp ne i64 %19, 0
  br i1 %20, label %21, label %23

21:                                               ; preds = %3
  %22 = load ptr, ptr %6, align 8, !tbaa !11
  store i32 0, ptr %22, align 4, !tbaa !19
  store i32 0, ptr %4, align 4
  store i32 1, ptr %9, align 4
  br label %56

23:                                               ; preds = %3
  %24 = load ptr, ptr %8, align 8, !tbaa !47
  %25 = getelementptr inbounds nuw %struct.FilterLinkInternal, ptr %24, i32 0, i32 6
  %26 = load i32, ptr %25, align 8, !tbaa !120
  %27 = icmp ne i32 %26, 0
  br i1 %27, label %28, label %33

28:                                               ; preds = %23
  %29 = load ptr, ptr %8, align 8, !tbaa !47
  %30 = getelementptr inbounds nuw %struct.FilterLinkInternal, ptr %29, i32 0, i32 6
  %31 = load i32, ptr %30, align 8, !tbaa !120
  %32 = load ptr, ptr %6, align 8, !tbaa !11
  store i32 %31, ptr %32, align 4, !tbaa !19
  store i32 %31, ptr %4, align 4
  store i32 1, ptr %9, align 4
  br label %56

33:                                               ; preds = %23
  %34 = load ptr, ptr %8, align 8, !tbaa !47
  %35 = getelementptr inbounds nuw %struct.FilterLinkInternal, ptr %34, i32 0, i32 4
  %36 = load i32, ptr %35, align 4, !tbaa !78
  %37 = icmp ne i32 %36, 0
  br i1 %37, label %40, label %38

38:                                               ; preds = %33
  %39 = load ptr, ptr %6, align 8, !tbaa !11
  store i32 0, ptr %39, align 4, !tbaa !19
  store i32 0, ptr %4, align 4
  store i32 1, ptr %9, align 4
  br label %56

40:                                               ; preds = %33
  %41 = load ptr, ptr %8, align 8, !tbaa !47
  %42 = getelementptr inbounds nuw %struct.FilterLinkInternal, ptr %41, i32 0, i32 4
  %43 = load i32, ptr %42, align 4, !tbaa !78
  %44 = load ptr, ptr %8, align 8, !tbaa !47
  %45 = getelementptr inbounds nuw %struct.FilterLinkInternal, ptr %44, i32 0, i32 6
  store i32 %43, ptr %45, align 8, !tbaa !120
  %46 = load ptr, ptr %6, align 8, !tbaa !11
  store i32 %43, ptr %46, align 4, !tbaa !19
  %47 = load ptr, ptr %8, align 8, !tbaa !47
  %48 = load ptr, ptr %8, align 8, !tbaa !47
  %49 = getelementptr inbounds nuw %struct.FilterLinkInternal, ptr %48, i32 0, i32 5
  %50 = load i64, ptr %49, align 8, !tbaa !79
  call void @update_link_current_pts(ptr noundef %47, i64 noundef %50)
  %51 = load ptr, ptr %8, align 8, !tbaa !47
  %52 = getelementptr inbounds nuw %struct.FilterLinkInternal, ptr %51, i32 0, i32 0
  %53 = getelementptr inbounds nuw %struct.FilterLink, ptr %52, i32 0, i32 2
  %54 = load i64, ptr %53, align 8, !tbaa !90
  %55 = load ptr, ptr %7, align 8, !tbaa !200
  store i64 %54, ptr %55, align 8, !tbaa !77
  store i32 1, ptr %4, align 4
  store i32 1, ptr %9, align 4
  br label %56

56:                                               ; preds = %40, %38, %28, %21
  call void @llvm.lifetime.end.p0(i64 8, ptr %8) #11
  %57 = load i32, ptr %4, align 4
  ret i32 %57
}