; Function Attrs: nounwind uwtable
define i32 @ff_inlink_acknowledge_status(ptr noundef %0, ptr noundef writeonly captures(none) initializes((0, 4)) %1, ptr noundef writeonly captures(none) initializes((0, 8)) %2) local_unnamed_addr #0 {
  %4 = getelementptr inbounds nuw i8, ptr %0, i64 208
  %5 = load i64, ptr %4, align 8, !tbaa !75
  store i64 %5, ptr %2, align 8, !tbaa !180
  %6 = getelementptr i8, ptr %0, i64 312
  %.val = load i64, ptr %6, align 8, !tbaa !100
  %.not = icmp eq i64 %.val, 0
  br i1 %.not, label %8, label %7

7:                                                ; preds = %3
  store i32 0, ptr %1, align 4, !tbaa !4
  br label %33

8:                                                ; preds = %3
  %9 = getelementptr inbounds nuw i8, ptr %0, i64 384
  %10 = load i32, ptr %9, align 8, !tbaa !99
  %.not19 = icmp eq i32 %10, 0
  br i1 %.not19, label %12, label %11

11:                                               ; preds = %8
  store i32 %10, ptr %1, align 4, !tbaa !4
  br label %33

12:                                               ; preds = %8
  %13 = getelementptr inbounds nuw i8, ptr %0, i64 372
  %14 = load i32, ptr %13, align 4, !tbaa !63
  %.not20 = icmp eq i32 %14, 0
  br i1 %.not20, label %15, label %16

15:                                               ; preds = %12
  store i32 0, ptr %1, align 4, !tbaa !4
  br label %33

16:                                               ; preds = %12
  store i32 %14, ptr %9, align 8, !tbaa !99
  store i32 %14, ptr %1, align 4, !tbaa !4
  %17 = getelementptr inbounds nuw i8, ptr %0, i64 376
  %18 = load i64, ptr %17, align 8, !tbaa !64
  %19 = icmp eq i64 %18, -9223372036854775808
  br i1 %19, label %update_link_current_pts.exit, label %20

20:                                               ; preds = %16
  store i64 %18, ptr %4, align 8, !tbaa !75
  %21 = getelementptr inbounds nuw i8, ptr %0, i64 96
  %22 = load i64, ptr %21, align 8
  %23 = tail call i64 @av_rescale_q(i64 noundef %18, i64 %22, i64 4294967296000001) #17
  %24 = getelementptr inbounds nuw i8, ptr %0, i64 216
  store i64 %23, ptr %24, align 8, !tbaa !74
  %25 = getelementptr inbounds nuw i8, ptr %0, i64 200
  %26 = load ptr, ptr %25, align 8, !tbaa !51
  %.not.i = icmp eq ptr %26, null
  br i1 %.not.i, label %update_link_current_pts.exit, label %27

27:                                               ; preds = %20
  %28 = getelementptr inbounds nuw i8, ptr %0, i64 392
  %29 = load i32, ptr %28, align 8, !tbaa !101
  %30 = icmp sgt i32 %29, -1
  br i1 %30, label %31, label %update_link_current_pts.exit

31:                                               ; preds = %27
  tail call void @ff_avfilter_graph_update_heap(ptr noundef nonnull %26, ptr noundef nonnull %0) #15
  %.pre = load i64, ptr %4, align 8, !tbaa !75
  br label %update_link_current_pts.exit

update_link_current_pts.exit:                     ; preds = %16, %20, %27, %31
  %32 = phi i64 [ %5, %16 ], [ %18, %20 ], [ %18, %27 ], [ %.pre, %31 ]
  store i64 %32, ptr %2, align 8, !tbaa !180
  br label %33

33:                                               ; preds = %update_link_current_pts.exit, %15, %11, %7
  %.0 = phi i32 [ 0, %7 ], [ %10, %11 ], [ 1, %update_link_current_pts.exit ], [ 0, %15 ]
  ret i32 %.0
}